; Function Attrs: mustprogress nofree norecurse nosync nounwind willreturn memory(read, inaccessiblemem: none) uwtable
define noundef zeroext i1 @_Z31haveFepPerturbedMassesInSettlesRK10gmx_mtop_t(ptr noundef nonnull readonly align 8 captures(none) dereferenceable(768) %0) local_unnamed_addr #2 {
  %2 = getelementptr inbounds nuw i8, ptr %0, i64 112
  %3 = load ptr, ptr %2, align 8, !tbaa !267
  %4 = getelementptr inbounds nuw i8, ptr %0, i64 120
  %5 = load ptr, ptr %4, align 8, !tbaa !267
  %.not2936.not = icmp eq ptr %3, %5
  br i1 %.not2936.not, label %.loopexit30, label %.lr.ph39

.lr.ph39:                                         ; preds = %1, %.loopexit
  %.sroa.022.037 = phi ptr [ %22, %.loopexit ], [ %3, %1 ]
  %6 = getelementptr inbounds nuw i8, ptr %.sroa.022.037, i64 1616
  %7 = load ptr, ptr %6, align 8, !tbaa !133
  %8 = getelementptr inbounds nuw i8, ptr %.sroa.022.037, i64 1624
  %9 = load ptr, ptr %8, align 8, !tbaa !133
  %10 = icmp eq ptr %7, %9
  br i1 %10, label %.loopexit, label %.preheader

.preheader:                                       ; preds = %.lr.ph39
  %11 = getelementptr inbounds nuw i8, ptr %.sroa.022.037, i64 8
  %12 = load i32, ptr %11, align 8, !tbaa !132
  %.not34 = icmp sgt i32 %12, 0
  br i1 %.not34, label %.lr.ph, label %.loopexit

.lr.ph:                                           ; preds = %.preheader
  %13 = getelementptr inbounds nuw i8, ptr %.sroa.022.037, i64 16
  %14 = load ptr, ptr %13, align 8, !tbaa !167
  %wide.trip.count = zext nneg i32 %12 to i64
  br label %16

15:                                               ; preds = %16
  %indvars.iv.next = add nuw nsw i64 %indvars.iv, 1
  %exitcond.not = icmp eq i64 %indvars.iv.next, %wide.trip.count
  br i1 %exitcond.not, label %.loopexit, label %16, !llvm.loop !292

16:                                               ; preds = %.lr.ph, %15
  %indvars.iv = phi i64 [ 0, %.lr.ph ], [ %indvars.iv.next, %15 ]
  %17 = getelementptr inbounds nuw %struct.t_atom, ptr %14, i64 %indvars.iv
  %18 = load float, ptr %17, align 4, !tbaa !288
  %19 = getelementptr inbounds nuw i8, ptr %17, i64 8
  %20 = load float, ptr %19, align 4, !tbaa !287
  %21 = fcmp oeq float %18, %20
  br i1 %21, label %15, label %.loopexit30

.loopexit:                                        ; preds = %15, %.preheader, %.lr.ph39
  %22 = getelementptr inbounds nuw i8, ptr %.sroa.022.037, i64 2408
  %.not29.not = icmp eq ptr %22, %5
  br i1 %.not29.not, label %.loopexit30, label %.lr.ph39

.loopexit30:                                      ; preds = %.loopexit, %16, %1
  %.not2933 = phi i1 [ false, %1 ], [ true, %16 ], [ false, %.loopexit ]
  ret i1 %.not2933
}